; Function Attrs: mustprogress uwtable
define void @_ZN3net10SpdyDataIRC2EjPKc(ptr noundef nonnull align 8 dereferenceable(48) initializes((0, 13), (16, 41), (44, 48)) %0, i32 noundef %1, ptr noundef %2) unnamed_addr #0 align 2 personality ptr @__gxx_personality_v0 {
  %4 = icmp eq ptr %2, null
  br i1 %4, label %_ZN4base16BasicStringPieceINSt7__cxx1112basic_stringIcSt11char_traitsIcESaIcEEEEC2EPKc.exit, label %5

5:                                                ; preds = %3
  %6 = tail call noundef i64 @strlen(ptr noundef nonnull dereferenceable(1) %2) #22
  br label %_ZN4base16BasicStringPieceINSt7__cxx1112basic_stringIcSt11char_traitsIcESaIcEEEEC2EPKc.exit

_ZN4base16BasicStringPieceINSt7__cxx1112basic_stringIcSt11char_traitsIcESaIcEEEEC2EPKc.exit: ; preds = %3, %5
  %7 = phi i64 [ %6, %5 ], [ 0, %3 ]
  %8 = getelementptr inbounds nuw i8, ptr %0, i64 8
  store i32 %1, ptr %8, align 8, !tbaa !13
  %9 = getelementptr inbounds nuw i8, ptr %0, i64 12
  store i8 0, ptr %9, align 4, !tbaa !17
  store ptr getelementptr inbounds nuw inrange(-16, 24) (i8, ptr @_ZTVN3net10SpdyDataIRE, i64 16), ptr %0, align 8, !tbaa !20
  %10 = getelementptr inbounds nuw i8, ptr %0, i64 16
  %11 = getelementptr inbounds nuw i8, ptr %0, i64 44
  store i32 0, ptr %11, align 4, !tbaa !22
  tail call void @llvm.memset.p0.i64(ptr noundef nonnull align 8 dereferenceable(25) %10, i8 0, i64 25, i1 false)
  invoke void @_ZN3net10SpdyDataIR11SetDataDeepEN4base16BasicStringPieceINSt7__cxx1112basic_stringIcSt11char_traitsIcESaIcEEEEE(ptr noundef nonnull align 8 dereferenceable(48) %0, ptr %2, i64 %7)
          to label %_ZN3net10SpdyDataIRC2EjN4base16BasicStringPieceINSt7__cxx1112basic_stringIcSt11char_traitsIcESaIcEEEEE.exit unwind label %12

12:                                               ; preds = %_ZN4base16BasicStringPieceINSt7__cxx1112basic_stringIcSt11char_traitsIcESaIcEEEEC2EPKc.exit
  %13 = landingpad { ptr, i32 }
          cleanup
  tail call void @_ZNSt10unique_ptrINSt7__cxx1112basic_stringIcSt11char_traitsIcESaIcEEESt14default_deleteIS5_EED2Ev(ptr noundef nonnull align 8 dereferenceable(8) %10) #22
  resume { ptr, i32 } %13

_ZN3net10SpdyDataIRC2EjN4base16BasicStringPieceINSt7__cxx1112basic_stringIcSt11char_traitsIcESaIcEEEEE.exit: ; preds = %_ZN4base16BasicStringPieceINSt7__cxx1112basic_stringIcSt11char_traitsIcESaIcEEEEC2EPKc.exit
  ret void
}